; Function Attrs: uwtable
define hidden noundef zeroext i1 @_ZTv0_n32_NK5osgeo4proj3crs13ParametricCRS15_isEquivalentToEPKNS0_4util11IComparableENS4_9CriterionERKSt10shared_ptrINS0_2io15DatabaseContextEE(ptr noundef %0, ptr noundef %1, i32 noundef %2, ptr noundef nonnull align 8 dereferenceable(16) %3) unnamed_addr #7 align 2 {
  %5 = load ptr, ptr %0, align 8
  %6 = getelementptr inbounds i8, ptr %5, i64 -32
  %7 = load i64, ptr %6, align 8
  %8 = getelementptr inbounds i8, ptr %0, i64 %7
  %9 = icmp eq ptr %1, null
  br i1 %9, label %_ZNK5osgeo4proj3crs13ParametricCRS15_isEquivalentToEPKNS0_4util11IComparableENS4_9CriterionERKSt10shared_ptrINS0_2io15DatabaseContextEE.exit, label %10

10:                                               ; preds = %4
  %11 = tail call ptr @__dynamic_cast(ptr nonnull %1, ptr nonnull @_ZTIN5osgeo4proj4util11IComparableE, ptr nonnull @_ZTIN5osgeo4proj3crs13ParametricCRSE, i64 -1) #37
  %12 = icmp eq ptr %11, null
  br i1 %12, label %_ZNK5osgeo4proj3crs13ParametricCRS15_isEquivalentToEPKNS0_4util11IComparableENS4_9CriterionERKSt10shared_ptrINS0_2io15DatabaseContextEE.exit, label %13

13:                                               ; preds = %10
  %14 = load ptr, ptr %8, align 8
  %15 = getelementptr i8, ptr %14, i64 -24
  %16 = load i64, ptr %15, align 8
  %17 = getelementptr inbounds i8, ptr %8, i64 %16
  %18 = tail call noundef zeroext i1 @_ZNK5osgeo4proj3crs9SingleCRS18baseIsEquivalentToEPKNS0_4util11IComparableENS4_9CriterionERKSt10shared_ptrINS0_2io15DatabaseContextEE(ptr noundef nonnull align 8 dereferenceable(72) %17, ptr noundef nonnull %1, i32 noundef %2, ptr noundef nonnull align 8 dereferenceable(16) %3)
  br label %_ZNK5osgeo4proj3crs13ParametricCRS15_isEquivalentToEPKNS0_4util11IComparableENS4_9CriterionERKSt10shared_ptrINS0_2io15DatabaseContextEE.exit

_ZNK5osgeo4proj3crs13ParametricCRS15_isEquivalentToEPKNS0_4util11IComparableENS4_9CriterionERKSt10shared_ptrINS0_2io15DatabaseContextEE.exit: ; preds = %4, %10, %13
  %19 = phi i1 [ false, %10 ], [ %18, %13 ], [ false, %4 ]
  ret i1 %19
}